
rv64ui-p-sw:     file format elf64-littleriscv


Disassembly of section .text.startup:

0000000000000000 <_start>:
   0:	008007b7          	lui	a5,0x800
   4:	ff878793          	addi	a5,a5,-8 # 7ffff8 <_end+0x7fdfc8>
   8:	04100713          	li	a4,65
   c:	00e78023          	sb	a4,0(a5)
  10:	00e78023          	sb	a4,0(a5)
  14:	00e78023          	sb	a4,0(a5)
  18:	00000263          	beqz	zero,1c <test_2>

000000000000001c <test_2>:
  1c:	00002097          	auipc	ra,0x2
  20:	fe408093          	addi	ra,ra,-28 # 2000 <begin_signature>
  24:	00aa0137          	lui	sp,0xaa0
  28:	0aa1011b          	addiw	sp,sp,170
  2c:	0020a023          	sw	sp,0(ra)
  30:	0000af03          	lw	t5,0(ra)
  34:	00aa0eb7          	lui	t4,0xaa0
  38:	0aae8e9b          	addiw	t4,t4,170
  3c:	00200193          	li	gp,2
  40:	47df1063          	bne	t5,t4,4a0 <fail>

0000000000000044 <test_3>:
  44:	00002097          	auipc	ra,0x2
  48:	fbc08093          	addi	ra,ra,-68 # 2000 <begin_signature>
  4c:	aa00b137          	lui	sp,0xaa00b
  50:	a001011b          	addiw	sp,sp,-1536
  54:	0020a223          	sw	sp,4(ra)
  58:	0040af03          	lw	t5,4(ra)
  5c:	aa00beb7          	lui	t4,0xaa00b
  60:	a00e8e9b          	addiw	t4,t4,-1536
  64:	00300193          	li	gp,3
  68:	43df1c63          	bne	t5,t4,4a0 <fail>

000000000000006c <test_4>:
  6c:	00002097          	auipc	ra,0x2
  70:	f9408093          	addi	ra,ra,-108 # 2000 <begin_signature>
  74:	0aa01137          	lui	sp,0xaa01
  78:	aa01011b          	addiw	sp,sp,-1376
  7c:	0020a423          	sw	sp,8(ra)
  80:	0080af03          	lw	t5,8(ra)
  84:	0aa01eb7          	lui	t4,0xaa01
  88:	aa0e8e9b          	addiw	t4,t4,-1376
  8c:	00400193          	li	gp,4
  90:	41df1863          	bne	t5,t4,4a0 <fail>

0000000000000094 <test_5>:
  94:	00002097          	auipc	ra,0x2
  98:	f6c08093          	addi	ra,ra,-148 # 2000 <begin_signature>
  9c:	a00aa137          	lui	sp,0xa00aa
  a0:	00a1011b          	addiw	sp,sp,10
  a4:	0020a623          	sw	sp,12(ra)
  a8:	00c0af03          	lw	t5,12(ra)
  ac:	a00aaeb7          	lui	t4,0xa00aa
  b0:	00ae8e9b          	addiw	t4,t4,10
  b4:	00500193          	li	gp,5
  b8:	3fdf1463          	bne	t5,t4,4a0 <fail>

00000000000000bc <test_6>:
  bc:	00002097          	auipc	ra,0x2
  c0:	f6008093          	addi	ra,ra,-160 # 201c <tdat8>
  c4:	00aa0137          	lui	sp,0xaa0
  c8:	0aa1011b          	addiw	sp,sp,170
  cc:	fe20aa23          	sw	sp,-12(ra)
  d0:	ff40af03          	lw	t5,-12(ra)
  d4:	00aa0eb7          	lui	t4,0xaa0
  d8:	0aae8e9b          	addiw	t4,t4,170
  dc:	00600193          	li	gp,6
  e0:	3ddf1063          	bne	t5,t4,4a0 <fail>

00000000000000e4 <test_7>:
  e4:	00002097          	auipc	ra,0x2
  e8:	f3808093          	addi	ra,ra,-200 # 201c <tdat8>
  ec:	aa00b137          	lui	sp,0xaa00b
  f0:	a001011b          	addiw	sp,sp,-1536
  f4:	fe20ac23          	sw	sp,-8(ra)
  f8:	ff80af03          	lw	t5,-8(ra)
  fc:	aa00beb7          	lui	t4,0xaa00b
 100:	a00e8e9b          	addiw	t4,t4,-1536
 104:	00700193          	li	gp,7
 108:	39df1c63          	bne	t5,t4,4a0 <fail>

000000000000010c <test_8>:
 10c:	00002097          	auipc	ra,0x2
 110:	f1008093          	addi	ra,ra,-240 # 201c <tdat8>
 114:	0aa01137          	lui	sp,0xaa01
 118:	aa01011b          	addiw	sp,sp,-1376
 11c:	fe20ae23          	sw	sp,-4(ra)
 120:	ffc0af03          	lw	t5,-4(ra)
 124:	0aa01eb7          	lui	t4,0xaa01
 128:	aa0e8e9b          	addiw	t4,t4,-1376
 12c:	00800193          	li	gp,8
 130:	37df1863          	bne	t5,t4,4a0 <fail>

0000000000000134 <test_9>:
 134:	00002097          	auipc	ra,0x2
 138:	ee808093          	addi	ra,ra,-280 # 201c <tdat8>
 13c:	a00aa137          	lui	sp,0xa00aa
 140:	00a1011b          	addiw	sp,sp,10
 144:	0020a023          	sw	sp,0(ra)
 148:	0000af03          	lw	t5,0(ra)
 14c:	a00aaeb7          	lui	t4,0xa00aa
 150:	00ae8e9b          	addiw	t4,t4,10
 154:	00900193          	li	gp,9
 158:	35df1463          	bne	t5,t4,4a0 <fail>

000000000000015c <test_10>:
 15c:	00002097          	auipc	ra,0x2
 160:	ec408093          	addi	ra,ra,-316 # 2020 <tdat9>
 164:	12345137          	lui	sp,0x12345
 168:	6781011b          	addiw	sp,sp,1656
 16c:	fe008213          	addi	tp,ra,-32
 170:	02222023          	sw	sp,32(tp) # 20 <test_2+0x4>
 174:	0000a283          	lw	t0,0(ra)
 178:	12345eb7          	lui	t4,0x12345
 17c:	678e8e9b          	addiw	t4,t4,1656
 180:	00a00193          	li	gp,10
 184:	31d29e63          	bne	t0,t4,4a0 <fail>

0000000000000188 <test_11>:
 188:	00002097          	auipc	ra,0x2
 18c:	e9808093          	addi	ra,ra,-360 # 2020 <tdat9>
 190:	58213137          	lui	sp,0x58213
 194:	0981011b          	addiw	sp,sp,152
 198:	ffd08093          	addi	ra,ra,-3
 19c:	0020a3a3          	sw	sp,7(ra)
 1a0:	00002217          	auipc	tp,0x2
 1a4:	e8420213          	addi	tp,tp,-380 # 2024 <tdat10>
 1a8:	00022283          	lw	t0,0(tp) # 0 <_start>
 1ac:	58213eb7          	lui	t4,0x58213
 1b0:	098e8e9b          	addiw	t4,t4,152
 1b4:	00b00193          	li	gp,11
 1b8:	2fd29463          	bne	t0,t4,4a0 <fail>

00000000000001bc <test_12>:
 1bc:	00c00193          	li	gp,12
 1c0:	00000213          	li	tp,0
 1c4:	aabbd0b7          	lui	ra,0xaabbd
 1c8:	cdd0809b          	addiw	ra,ra,-803
 1cc:	00002117          	auipc	sp,0x2
 1d0:	e3410113          	addi	sp,sp,-460 # 2000 <begin_signature>
 1d4:	00112023          	sw	ra,0(sp)
 1d8:	00012f03          	lw	t5,0(sp)
 1dc:	aabbdeb7          	lui	t4,0xaabbd
 1e0:	cdde8e9b          	addiw	t4,t4,-803
 1e4:	2bdf1e63          	bne	t5,t4,4a0 <fail>
 1e8:	00120213          	addi	tp,tp,1 # 1 <_start+0x1>
 1ec:	00200293          	li	t0,2
 1f0:	fc521ae3          	bne	tp,t0,1c4 <test_12+0x8>

00000000000001f4 <test_13>:
 1f4:	00d00193          	li	gp,13
 1f8:	00000213          	li	tp,0
 1fc:	daabc0b7          	lui	ra,0xdaabc
 200:	ccd0809b          	addiw	ra,ra,-819
 204:	00002117          	auipc	sp,0x2
 208:	dfc10113          	addi	sp,sp,-516 # 2000 <begin_signature>
 20c:	00000013          	nop
 210:	00112223          	sw	ra,4(sp)
 214:	00412f03          	lw	t5,4(sp)
 218:	daabceb7          	lui	t4,0xdaabc
 21c:	ccde8e9b          	addiw	t4,t4,-819
 220:	29df1063          	bne	t5,t4,4a0 <fail>
 224:	00120213          	addi	tp,tp,1 # 1 <_start+0x1>
 228:	00200293          	li	t0,2
 22c:	fc5218e3          	bne	tp,t0,1fc <test_13+0x8>

0000000000000230 <test_14>:
 230:	00e00193          	li	gp,14
 234:	00000213          	li	tp,0
 238:	ddaac0b7          	lui	ra,0xddaac
 23c:	bcc0809b          	addiw	ra,ra,-1076
 240:	00002117          	auipc	sp,0x2
 244:	dc010113          	addi	sp,sp,-576 # 2000 <begin_signature>
 248:	00000013          	nop
 24c:	00000013          	nop
 250:	00112423          	sw	ra,8(sp)
 254:	00812f03          	lw	t5,8(sp)
 258:	ddaaceb7          	lui	t4,0xddaac
 25c:	bcce8e9b          	addiw	t4,t4,-1076
 260:	25df1063          	bne	t5,t4,4a0 <fail>
 264:	00120213          	addi	tp,tp,1 # 1 <_start+0x1>
 268:	00200293          	li	t0,2
 26c:	fc5216e3          	bne	tp,t0,238 <test_14+0x8>

0000000000000270 <test_15>:
 270:	00f00193          	li	gp,15
 274:	00000213          	li	tp,0
 278:	cddab0b7          	lui	ra,0xcddab
 27c:	bbc0809b          	addiw	ra,ra,-1092
 280:	00000013          	nop
 284:	00002117          	auipc	sp,0x2
 288:	d7c10113          	addi	sp,sp,-644 # 2000 <begin_signature>
 28c:	00112623          	sw	ra,12(sp)
 290:	00c12f03          	lw	t5,12(sp)
 294:	cddabeb7          	lui	t4,0xcddab
 298:	bbce8e9b          	addiw	t4,t4,-1092
 29c:	21df1263          	bne	t5,t4,4a0 <fail>
 2a0:	00120213          	addi	tp,tp,1 # 1 <_start+0x1>
 2a4:	00200293          	li	t0,2
 2a8:	fc5218e3          	bne	tp,t0,278 <test_15+0x8>

00000000000002ac <test_16>:
 2ac:	01000193          	li	gp,16
 2b0:	00000213          	li	tp,0
 2b4:	ccddb0b7          	lui	ra,0xccddb
 2b8:	abb0809b          	addiw	ra,ra,-1349
 2bc:	00000013          	nop
 2c0:	00002117          	auipc	sp,0x2
 2c4:	d4010113          	addi	sp,sp,-704 # 2000 <begin_signature>
 2c8:	00000013          	nop
 2cc:	00112823          	sw	ra,16(sp)
 2d0:	01012f03          	lw	t5,16(sp)
 2d4:	ccddbeb7          	lui	t4,0xccddb
 2d8:	abbe8e9b          	addiw	t4,t4,-1349
 2dc:	1ddf1263          	bne	t5,t4,4a0 <fail>
 2e0:	00120213          	addi	tp,tp,1 # 1 <_start+0x1>
 2e4:	00200293          	li	t0,2
 2e8:	fc5216e3          	bne	tp,t0,2b4 <test_16+0x8>

00000000000002ec <test_17>:
 2ec:	01100193          	li	gp,17
 2f0:	00000213          	li	tp,0
 2f4:	bccde0b7          	lui	ra,0xbccde
 2f8:	aab0809b          	addiw	ra,ra,-1365
 2fc:	00000013          	nop
 300:	00000013          	nop
 304:	00002117          	auipc	sp,0x2
 308:	cfc10113          	addi	sp,sp,-772 # 2000 <begin_signature>
 30c:	00112a23          	sw	ra,20(sp)
 310:	01412f03          	lw	t5,20(sp)
 314:	bccdeeb7          	lui	t4,0xbccde
 318:	aabe8e9b          	addiw	t4,t4,-1365
 31c:	19df1263          	bne	t5,t4,4a0 <fail>
 320:	00120213          	addi	tp,tp,1 # 1 <_start+0x1>
 324:	00200293          	li	t0,2
 328:	fc5216e3          	bne	tp,t0,2f4 <test_17+0x8>

000000000000032c <test_18>:
 32c:	01200193          	li	gp,18
 330:	00000213          	li	tp,0
 334:	00002117          	auipc	sp,0x2
 338:	ccc10113          	addi	sp,sp,-820 # 2000 <begin_signature>
 33c:	001120b7          	lui	ra,0x112
 340:	2330809b          	addiw	ra,ra,563
 344:	00112023          	sw	ra,0(sp)
 348:	00012f03          	lw	t5,0(sp)
 34c:	00112eb7          	lui	t4,0x112
 350:	233e8e9b          	addiw	t4,t4,563
 354:	15df1663          	bne	t5,t4,4a0 <fail>
 358:	00120213          	addi	tp,tp,1 # 1 <_start+0x1>
 35c:	00200293          	li	t0,2
 360:	fc521ae3          	bne	tp,t0,334 <test_18+0x8>

0000000000000364 <test_19>:
 364:	01300193          	li	gp,19
 368:	00000213          	li	tp,0
 36c:	00002117          	auipc	sp,0x2
 370:	c9410113          	addi	sp,sp,-876 # 2000 <begin_signature>
 374:	300110b7          	lui	ra,0x30011
 378:	2230809b          	addiw	ra,ra,547
 37c:	00000013          	nop
 380:	00112223          	sw	ra,4(sp)
 384:	00412f03          	lw	t5,4(sp)
 388:	30011eb7          	lui	t4,0x30011
 38c:	223e8e9b          	addiw	t4,t4,547
 390:	11df1863          	bne	t5,t4,4a0 <fail>
 394:	00120213          	addi	tp,tp,1 # 1 <_start+0x1>
 398:	00200293          	li	t0,2
 39c:	fc5218e3          	bne	tp,t0,36c <test_19+0x8>

00000000000003a0 <test_20>:
 3a0:	01400193          	li	gp,20
 3a4:	00000213          	li	tp,0
 3a8:	00002117          	auipc	sp,0x2
 3ac:	c5810113          	addi	sp,sp,-936 # 2000 <begin_signature>
 3b0:	330010b7          	lui	ra,0x33001
 3b4:	1220809b          	addiw	ra,ra,290
 3b8:	00000013          	nop
 3bc:	00000013          	nop
 3c0:	00112423          	sw	ra,8(sp)
 3c4:	00812f03          	lw	t5,8(sp)
 3c8:	33001eb7          	lui	t4,0x33001
 3cc:	122e8e9b          	addiw	t4,t4,290
 3d0:	0ddf1863          	bne	t5,t4,4a0 <fail>
 3d4:	00120213          	addi	tp,tp,1 # 1 <_start+0x1>
 3d8:	00200293          	li	t0,2
 3dc:	fc5216e3          	bne	tp,t0,3a8 <test_20+0x8>

00000000000003e0 <test_21>:
 3e0:	01500193          	li	gp,21
 3e4:	00000213          	li	tp,0
 3e8:	00002117          	auipc	sp,0x2
 3ec:	c1810113          	addi	sp,sp,-1000 # 2000 <begin_signature>
 3f0:	00000013          	nop
 3f4:	233000b7          	lui	ra,0x23300
 3f8:	1120809b          	addiw	ra,ra,274
 3fc:	00112623          	sw	ra,12(sp)
 400:	00c12f03          	lw	t5,12(sp)
 404:	23300eb7          	lui	t4,0x23300
 408:	112e8e9b          	addiw	t4,t4,274
 40c:	09df1a63          	bne	t5,t4,4a0 <fail>
 410:	00120213          	addi	tp,tp,1 # 1 <_start+0x1>
 414:	00200293          	li	t0,2
 418:	fc5218e3          	bne	tp,t0,3e8 <test_21+0x8>

000000000000041c <test_22>:
 41c:	01600193          	li	gp,22
 420:	00000213          	li	tp,0
 424:	00002117          	auipc	sp,0x2
 428:	bdc10113          	addi	sp,sp,-1060 # 2000 <begin_signature>
 42c:	00000013          	nop
 430:	223300b7          	lui	ra,0x22330
 434:	0110809b          	addiw	ra,ra,17
 438:	00000013          	nop
 43c:	00112823          	sw	ra,16(sp)
 440:	01012f03          	lw	t5,16(sp)
 444:	22330eb7          	lui	t4,0x22330
 448:	011e8e9b          	addiw	t4,t4,17
 44c:	05df1a63          	bne	t5,t4,4a0 <fail>
 450:	00120213          	addi	tp,tp,1 # 1 <_start+0x1>
 454:	00200293          	li	t0,2
 458:	fc5216e3          	bne	tp,t0,424 <test_22+0x8>

000000000000045c <test_23>:
 45c:	01700193          	li	gp,23
 460:	00000213          	li	tp,0
 464:	00002117          	auipc	sp,0x2
 468:	b9c10113          	addi	sp,sp,-1124 # 2000 <begin_signature>
 46c:	00000013          	nop
 470:	00000013          	nop
 474:	122330b7          	lui	ra,0x12233
 478:	0010809b          	addiw	ra,ra,1
 47c:	00112a23          	sw	ra,20(sp)
 480:	01412f03          	lw	t5,20(sp)
 484:	12233eb7          	lui	t4,0x12233
 488:	001e8e9b          	addiw	t4,t4,1
 48c:	01df1a63          	bne	t5,t4,4a0 <fail>
 490:	00120213          	addi	tp,tp,1 # 1 <_start+0x1>
 494:	00200293          	li	t0,2
 498:	fc5216e3          	bne	tp,t0,464 <test_23+0x8>
 49c:	00301e63          	bne	zero,gp,4b8 <pass>

00000000000004a0 <fail>:
 4a0:	008007b7          	lui	a5,0x800
 4a4:	ff878793          	addi	a5,a5,-8 # 7ffff8 <_end+0x7fdfc8>
 4a8:	04e00713          	li	a4,78
 4ac:	00e78023          	sb	a4,0(a5)
 4b0:	00e78023          	sb	a4,0(a5)
 4b4:	00e78023          	sb	a4,0(a5)

00000000000004b8 <pass>:
 4b8:	008007b7          	lui	a5,0x800
 4bc:	ff878793          	addi	a5,a5,-8 # 7ffff8 <_end+0x7fdfc8>
 4c0:	05900713          	li	a4,89
 4c4:	00e78023          	sb	a4,0(a5)
 4c8:	00e78023          	sb	a4,0(a5)
 4cc:	00e78023          	sb	a4,0(a5)
 4d0:	c0001073          	unimp

Disassembly of section .tohost:

0000000000001000 <tohost>:
	...

0000000000001040 <fromhost>:
	...
