
rv64ui-p-auipc:     file format elf64-littleriscv


Disassembly of section .text.startup:

0000000000000000 <_start>:
   0:	008007b7          	lui	a5,0x800
   4:	ff878793          	addi	a5,a5,-8 # 7ffff8 <_end+0x7fdff8>
   8:	04100713          	li	a4,65
   c:	00e78023          	sb	a4,0(a5)
  10:	00e78023          	sb	a4,0(a5)
  14:	00e78023          	sb	a4,0(a5)
  18:	00000263          	beqz	zero,1c <test_2>

000000000000001c <test_2>:
  1c:	00000013          	nop
  20:	00002517          	auipc	a0,0x2
  24:	71c50513          	addi	a0,a0,1820 # 273c <_end+0x73c>
  28:	004005ef          	jal	a1,2c <test_2+0x10>
  2c:	40b50533          	sub	a0,a0,a1
  30:	00002eb7          	lui	t4,0x2
  34:	710e8e9b          	addiw	t4,t4,1808
  38:	00200193          	li	gp,2
  3c:	03d51463          	bne	a0,t4,64 <fail>

0000000000000040 <test_3>:
  40:	ffffe517          	auipc	a0,0xffffe
  44:	8fc50513          	addi	a0,a0,-1796 # ffffffffffffd93c <_end+0xffffffffffffb93c>
  48:	004005ef          	jal	a1,4c <test_3+0xc>
  4c:	40b50533          	sub	a0,a0,a1
  50:	ffffeeb7          	lui	t4,0xffffe
  54:	8f0e8e9b          	addiw	t4,t4,-1808
  58:	00300193          	li	gp,3
  5c:	01d51463          	bne	a0,t4,64 <fail>
  60:	00301e63          	bne	zero,gp,7c <pass>

0000000000000064 <fail>:
  64:	008007b7          	lui	a5,0x800
  68:	ff878793          	addi	a5,a5,-8 # 7ffff8 <_end+0x7fdff8>
  6c:	04e00713          	li	a4,78
  70:	00e78023          	sb	a4,0(a5)
  74:	00e78023          	sb	a4,0(a5)
  78:	00e78023          	sb	a4,0(a5)

000000000000007c <pass>:
  7c:	008007b7          	lui	a5,0x800
  80:	ff878793          	addi	a5,a5,-8 # 7ffff8 <_end+0x7fdff8>
  84:	05900713          	li	a4,89
  88:	00e78023          	sb	a4,0(a5)
  8c:	00e78023          	sb	a4,0(a5)
  90:	00e78023          	sb	a4,0(a5)
  94:	c0001073          	unimp
  98:	0000                	unimp
	...

Disassembly of section .tohost:

0000000000001000 <tohost>:
	...

0000000000001040 <fromhost>:
	...
